target datalayout = "e-m:e-p270:32:32-p271:32:32-p272:64:64-i64:64-i128:128-f80:128-n8:16:32:64-S128"
target triple = "x86_64-unknown-linux-gnu"

%"class.Imf_3_2::TileDescription" = type { i32, i32, i32, i32 }
%"struct.std::_Rb_tree_key_compare" = type { %"struct.std::less" }
%"struct.std::less" = type { i8 }
%"struct.std::_Rb_tree_header" = type { %"struct.std::_Rb_tree_node_base", i64 }
%"struct.std::_Rb_tree_node_base" = type { i32, ptr, ptr, ptr }
%"class.Imf_3_2::Header" = type <{ %"class.std::map", i8, [7 x i8] }>
%"class.std::map" = type { %"class.std::_Rb_tree" }
%"class.std::_Rb_tree" = type { %"struct.std::_Rb_tree<Imf_3_2::Name, std::pair<const Imf_3_2::Name, Imf_3_2::Attribute *>, std::_Select1st<std::pair<const Imf_3_2::Name, Imf_3_2::Attribute *>>, std::less<Imf_3_2::Name>>::_Rb_tree_impl" }
%"struct.std::_Rb_tree<Imf_3_2::Name, std::pair<const Imf_3_2::Name, Imf_3_2::Attribute *>, std::_Select1st<std::pair<const Imf_3_2::Name, Imf_3_2::Attribute *>>, std::less<Imf_3_2::Name>>::_Rb_tree_impl" = type { %"struct.std::_Rb_tree_key_compare", %"struct.std::_Rb_tree_header" }
%"class.Imf_3_2::TiledRgbaOutputFile" = type { ptr, ptr, ptr }

@_ZTVN7Imf_3_219TiledRgbaOutputFileE = unnamed_addr constant { [4 x ptr] } { [4 x ptr] [ptr null, ptr @_ZTIN7Imf_3_219TiledRgbaOutputFileE, ptr @_ZN7Imf_3_219TiledRgbaOutputFileD1Ev, ptr @_ZN7Imf_3_219TiledRgbaOutputFileD0Ev] }, align 8
@_ZN7Imf_3_219TiledRgbaOutputFile4ToYaC1ERNS_15TiledOutputFileENS_12RgbaChannelsE = hidden unnamed_addr alias void (ptr, ptr, i32), ptr @_ZN7Imf_3_219TiledRgbaOutputFile4ToYaC2ERNS_15TiledOutputFileENS_12RgbaChannelsE

; Function Attrs: mustprogress nounwind uwtable
define linkonce_odr hidden void @_ZN7Imf_3_215TileDescriptionC2EjjNS_9LevelModeENS_17LevelRoundingModeE(ptr noundef nonnull align 4 dereferenceable(16) %this, i32 noundef %xs, i32 noundef %ys, i32 noundef %m, i32 noundef %r) unnamed_addr #5 comdat align 2 {
entry:
  %this.addr = alloca ptr, align 8
  %xs.addr = alloca i32, align 4
  %ys.addr = alloca i32, align 4
  %m.addr = alloca i32, align 4
  %r.addr = alloca i32, align 4
  store ptr %this, ptr %this.addr, align 8
  store i32 %xs, ptr %xs.addr, align 4
  store i32 %ys, ptr %ys.addr, align 4
  store i32 %m, ptr %m.addr, align 4
  store i32 %r, ptr %r.addr, align 4
  %this1 = load ptr, ptr %this.addr, align 8
  %xSize = getelementptr inbounds %"class.Imf_3_2::TileDescription", ptr %this1, i32 0, i32 0
  %0 = load i32, ptr %xs.addr, align 4
  store i32 %0, ptr %xSize, align 4
  %ySize = getelementptr inbounds %"class.Imf_3_2::TileDescription", ptr %this1, i32 0, i32 1
  %1 = load i32, ptr %ys.addr, align 4
  store i32 %1, ptr %ySize, align 4
  %mode = getelementptr inbounds %"class.Imf_3_2::TileDescription", ptr %this1, i32 0, i32 2
  %2 = load i32, ptr %m.addr, align 4
  store i32 %2, ptr %mode, align 4
  %roundingMode = getelementptr inbounds %"class.Imf_3_2::TileDescription", ptr %this1, i32 0, i32 3
  %3 = load i32, ptr %r.addr, align 4
  store i32 %3, ptr %roundingMode, align 4
  ret void
}

; Function Attrs: mustprogress uwtable
define void @_ZN7Imf_3_219TiledRgbaOutputFileC2EPKcRKNS_6HeaderENS_12RgbaChannelsEiiNS_9LevelModeENS_17LevelRoundingModeEi(ptr noundef nonnull align 8 dereferenceable(24) %this, ptr noundef %name, ptr noundef nonnull align 8 dereferenceable(49) %header, i32 noundef %rgbaChannels, i32 noundef %tileXSize, i32 noundef %tileYSize, i32 noundef %mode, i32 noundef %rmode, i32 noundef %numThreads) unnamed_addr #4 align 2 personality ptr @__gxx_personality_v0 {
entry:
  %this.addr = alloca ptr, align 8
  %name.addr = alloca ptr, align 8
  %header.addr = alloca ptr, align 8
  %rgbaChannels.addr = alloca i32, align 4
  %tileXSize.addr = alloca i32, align 4
  %tileYSize.addr = alloca i32, align 4
  %mode.addr = alloca i32, align 4
  %rmode.addr = alloca i32, align 4
  %numThreads.addr = alloca i32, align 4
  %hd = alloca %"class.Imf_3_2::Header", align 8
  %exn.slot = alloca ptr, align 8
  %ehselector.slot = alloca i32, align 4
  %ref.tmp = alloca %"class.Imf_3_2::TileDescription", align 4
  store ptr %this, ptr %this.addr, align 8
  store ptr %name, ptr %name.addr, align 8
  store ptr %header, ptr %header.addr, align 8
  store i32 %rgbaChannels, ptr %rgbaChannels.addr, align 4
  store i32 %tileXSize, ptr %tileXSize.addr, align 4
  store i32 %tileYSize, ptr %tileYSize.addr, align 4
  store i32 %mode, ptr %mode.addr, align 4
  store i32 %rmode, ptr %rmode.addr, align 4
  store i32 %numThreads, ptr %numThreads.addr, align 4
  %this1 = load ptr, ptr %this.addr, align 8
  store ptr getelementptr inbounds ({ [4 x ptr] }, ptr @_ZTVN7Imf_3_219TiledRgbaOutputFileE, i32 0, i32 0, i32 2), ptr %this1, align 8
  %_outputFile = getelementptr inbounds %"class.Imf_3_2::TiledRgbaOutputFile", ptr %this1, i32 0, i32 1
  store ptr null, ptr %_outputFile, align 8
  %_toYa = getelementptr inbounds %"class.Imf_3_2::TiledRgbaOutputFile", ptr %this1, i32 0, i32 2
  store ptr null, ptr %_toYa, align 8
  %0 = load ptr, ptr %header.addr, align 8
  call void @_ZN7Imf_3_26HeaderC1ERKS0_(ptr noundef nonnull align 8 dereferenceable(49) %hd, ptr noundef nonnull align 8 dereferenceable(49) %0)
  %1 = load i32, ptr %rgbaChannels.addr, align 4
  %2 = load ptr, ptr %name.addr, align 8
  invoke void @_ZN7Imf_3_212_GLOBAL__N_114insertChannelsERNS_6HeaderENS_12RgbaChannelsEPKc(ptr noundef nonnull align 8 dereferenceable(49) %hd, i32 noundef %1, ptr noundef %2)
          to label %invoke.cont unwind label %lpad

invoke.cont:                                      ; preds = %entry
  %3 = load i32, ptr %tileXSize.addr, align 4
  %4 = load i32, ptr %tileYSize.addr, align 4
  %5 = load i32, ptr %mode.addr, align 4
  %6 = load i32, ptr %rmode.addr, align 4
  invoke void @_ZN7Imf_3_215TileDescriptionC2EjjNS_9LevelModeENS_17LevelRoundingModeE(ptr noundef nonnull align 4 dereferenceable(16) %ref.tmp, i32 noundef %3, i32 noundef %4, i32 noundef %5, i32 noundef %6)
          to label %invoke.cont2 unwind label %lpad

invoke.cont2:                                     ; preds = %invoke.cont
  invoke void @_ZN7Imf_3_26Header18setTileDescriptionERKNS_15TileDescriptionE(ptr noundef nonnull align 8 dereferenceable(49) %hd, ptr noundef nonnull align 4 dereferenceable(16) %ref.tmp)
          to label %invoke.cont3 unwind label %lpad

invoke.cont3:                                     ; preds = %invoke.cont2
  %call = invoke noalias noundef nonnull ptr @_Znwm(i64 noundef 32) #12
          to label %invoke.cont4 unwind label %lpad

invoke.cont4:                                     ; preds = %invoke.cont3
  %7 = load ptr, ptr %name.addr, align 8
  %8 = load i32, ptr %numThreads.addr, align 4
  invoke void @_ZN7Imf_3_215TiledOutputFileC1EPKcRKNS_6HeaderEi(ptr noundef nonnull align 8 dereferenceable(25) %call, ptr noundef %7, ptr noundef nonnull align 8 dereferenceable(49) %hd, i32 noundef %8)
          to label %invoke.cont6 unwind label %lpad5

invoke.cont6:                                     ; preds = %invoke.cont4
  %_outputFile7 = getelementptr inbounds %"class.Imf_3_2::TiledRgbaOutputFile", ptr %this1, i32 0, i32 1
  store ptr %call, ptr %_outputFile7, align 8
  %9 = load i32, ptr %rgbaChannels.addr, align 4
  %and = and i32 %9, 16
  %tobool = icmp ne i32 %and, 0
  br i1 %tobool, label %if.then, label %if.end

if.then:                                          ; preds = %invoke.cont6
  %call9 = invoke noalias noundef nonnull ptr @_Znwm(i64 noundef 80) #12
          to label %invoke.cont8 unwind label %lpad

invoke.cont8:                                     ; preds = %if.then
  %_outputFile10 = getelementptr inbounds %"class.Imf_3_2::TiledRgbaOutputFile", ptr %this1, i32 0, i32 1
  %10 = load ptr, ptr %_outputFile10, align 8
  %11 = load i32, ptr %rgbaChannels.addr, align 4
  invoke void @_ZN7Imf_3_219TiledRgbaOutputFile4ToYaC1ERNS_15TiledOutputFileENS_12RgbaChannelsE(ptr noundef nonnull align 8 dereferenceable(80) %call9, ptr noundef nonnull align 8 dereferenceable(25) %10, i32 noundef %11)
          to label %invoke.cont12 unwind label %lpad11

invoke.cont12:                                    ; preds = %invoke.cont8
  %_toYa13 = getelementptr inbounds %"class.Imf_3_2::TiledRgbaOutputFile", ptr %this1, i32 0, i32 2
  store ptr %call9, ptr %_toYa13, align 8
  br label %if.end

lpad:                                             ; preds = %if.then, %invoke.cont3, %invoke.cont2, %invoke.cont, %entry
  %12 = landingpad { ptr, i32 }
          cleanup
  %13 = extractvalue { ptr, i32 } %12, 0
  store ptr %13, ptr %exn.slot, align 8
  %14 = extractvalue { ptr, i32 } %12, 1
  store i32 %14, ptr %ehselector.slot, align 4
  br label %ehcleanup

lpad5:                                            ; preds = %invoke.cont4
  %15 = landingpad { ptr, i32 }
          cleanup
  %16 = extractvalue { ptr, i32 } %15, 0
  store ptr %16, ptr %exn.slot, align 8
  %17 = extractvalue { ptr, i32 } %15, 1
  store i32 %17, ptr %ehselector.slot, align 4
  call void @_ZdlPv(ptr noundef %call) #13
  br label %ehcleanup

lpad11:                                           ; preds = %invoke.cont8
  %18 = landingpad { ptr, i32 }
          cleanup
  %19 = extractvalue { ptr, i32 } %18, 0
  store ptr %19, ptr %exn.slot, align 8
  %20 = extractvalue { ptr, i32 } %18, 1
  store i32 %20, ptr %ehselector.slot, align 4
  call void @_ZdlPv(ptr noundef %call9) #13
  br label %ehcleanup

if.end:                                           ; preds = %invoke.cont12, %invoke.cont6
  call void @_ZN7Imf_3_26HeaderD1Ev(ptr noundef nonnull align 8 dereferenceable(49) %hd) #3
  ret void

ehcleanup:                                        ; preds = %lpad11, %lpad5, %lpad
  call void @_ZN7Imf_3_26HeaderD1Ev(ptr noundef nonnull align 8 dereferenceable(49) %hd) #3
  br label %eh.resume

eh.resume:                                        ; preds = %ehcleanup
  %exn = load ptr, ptr %exn.slot, align 8
  %sel = load i32, ptr %ehselector.slot, align 4
  %lpad.val = insertvalue { ptr, i32 } poison, ptr %exn, 0
  %lpad.val14 = insertvalue { ptr, i32 } %lpad.val, i32 %sel, 1
  resume { ptr, i32 } %lpad.val14
}